(dp0
S'\x86'
p1
I0
sS'\n'
p2
I1
sS'!'
p3
I3
sS' '
p4
I4
sS'"'
p5
I5
sS'\xa4'
p6
I6
sS"'"
p7
I7
sS'\xa6'
p8
I8
sS'\xa9'
p9
I2
sS'('
p10
I10
sS'\xab'
p11
I11
sS'-'
p12
I12
sS','
p13
I13
sS'.'
p14
I14
sS'1'
p15
I15
sS'0'
p16
I16
sS'3'
p17
I17
sS'2'
p18
I18
sS'5'
p19
I19
sS'4'
p20
I20
sS'7'
p21
I21
sS'6'
p22
I22
sS'9'
p23
I23
sS'8'
p24
I24
sS';'
p25
I25
sS':'
p26
I26
sS'='
p27
I27
sS'?'
p28
I28
sS'\xc3'
p29
I29
sS'p'
p30
I49
sS'['
p31
I30
sS']'
p32
I31
sS'_'
p33
I32
sS'a'
p34
I33
sS'c'
p35
I34
sS'b'
p36
I35
sS'e'
p37
I36
sS'd'
p38
I37
sS'g'
p39
I38
sS'f'
p40
I39
sS'i'
p41
I40
sS'h'
p42
I41
sS'k'
p43
I42
sS'j'
p44
I43
sS'm'
p45
I44
sS'l'
p46
I45
sS'o'
p47
I46
sS'n'
p48
I47
sS'q'
p49
I48
sS')'
p50
I9
sS's'
p51
I50
sS'r'
p52
I51
sS'u'
p53
I52
sS't'
p54
I53
sS'w'
p55
I54
sS'v'
p56
I55
sS'y'
p57
I56
sS'x'
p58
I57
sS'z'
p59
I58
s.